; Function Attrs: mustprogress uwtable
define void @_ZN3zmq6pipe_t21process_activate_readEv(ptr noundef nonnull align 8 dereferenceable(328) %0) unnamed_addr #0 align 2 {
  %2 = getelementptr inbounds nuw i8, ptr %0, i64 88
  %3 = load i8, ptr %2, align 8, !tbaa !112, !range !7, !noundef !8
  %4 = trunc nuw i8 %3 to i1
  br i1 %4, label %14, label %5

5:                                                ; preds = %1
  %6 = getelementptr inbounds nuw i8, ptr %0, i64 152
  %7 = load i32, ptr %6, align 8, !tbaa !105
  switch i32 %7, label %14 [
    i32 0, label %8
    i32 2, label %8
  ]

8:                                                ; preds = %5, %5
  store i8 1, ptr %2, align 8, !tbaa !112
  %9 = getelementptr inbounds nuw i8, ptr %0, i64 144
  %10 = load ptr, ptr %9, align 8, !tbaa !126
  %11 = load ptr, ptr %10, align 8, !tbaa !9
  %12 = getelementptr inbounds nuw i8, ptr %11, i64 16
  %13 = load ptr, ptr %12, align 8
  tail call void %13(ptr noundef nonnull align 8 dereferenceable(8) %10, ptr noundef nonnull %0)
  br label %14

14:                                               ; preds = %5, %8, %1
  ret void
}